target datalayout = "e-m:e-p270:32:32-p271:32:32-p272:64:64-i64:64-i128:128-f80:128-n8:16:32:64-S128"
target triple = "x86_64-pc-linux-gnu"

%struct.H5S_t = type { %struct.H5S_extent_t, %struct.H5S_select_t }
%struct.H5S_extent_t = type { %struct.H5O_shared_t, i32, i32, i64, i32, ptr, ptr }
%struct.H5O_shared_t = type { i32, ptr, i32, %union.anon }
%union.anon = type { %struct.H5O_mesg_loc_t }
%struct.H5O_mesg_loc_t = type { i32, i64 }
%struct.H5S_select_t = type { ptr, i8, [32 x i64], i64, %union.anon.0 }
%union.anon.0 = type { ptr }
%struct.H5S_hyper_sel_t = type { i32, %struct.H5S_hyper_diminfo_t, i32, i64, ptr }
%struct.H5S_hyper_diminfo_t = type { [32 x %struct.H5S_hyper_dim_t], [32 x %struct.H5S_hyper_dim_t], [32 x i64], [32 x i64] }
%struct.H5S_hyper_dim_t = type { i64, i64, i64, i64 }
%struct.H5S_hyper_span_info_t = type { i32, ptr, ptr, [2 x %struct.H5S_hyper_op_info_t], ptr, ptr, [0 x i64] }
%struct.H5S_hyper_op_info_t = type { i64, %union.anon.1 }
%union.anon.1 = type { ptr }

@H5S_init_g = external global i8, align 1
@H5_libterm_g = external global i8, align 1
@.str = private unnamed_addr constant [102 x i8] c"generated/home/dtcxzyw/WorkSpace/Projects/compilers/llvm-opt-benchmark/bench/hdf5/hdf5/src/H5Shyper.c\00", align 1
@H5E_DATASPACE_g = external global i64, align 8
@H5E_BADRANGE_g = external global i64, align 8
@__func__.H5S__hyper_bounds = private unnamed_addr constant [18 x i8] c"H5S__hyper_bounds\00", align 1
@.str.86 = private unnamed_addr constant [37 x i8] c"offset moves selection out of bounds\00", align 1

; Function Attrs: nounwind uwtable
define internal i32 @H5S__hyper_bounds(ptr noundef %0, ptr noundef %1, ptr noundef %2) #0 {
  %4 = alloca i32, align 4
  %5 = alloca ptr, align 8
  %6 = alloca ptr, align 8
  %7 = alloca ptr, align 8
  %8 = alloca ptr, align 8
  %9 = alloca ptr, align 8
  %10 = alloca i32, align 4
  %11 = alloca i8, align 1
  %12 = alloca i32, align 4
  %13 = alloca i32, align 4
  store ptr %0, ptr %5, align 8, !tbaa !3
  store ptr %1, ptr %6, align 8, !tbaa !33
  store ptr %2, ptr %7, align 8, !tbaa !33
  call void @llvm.lifetime.start.p0(i64 8, ptr %8) #7
  call void @llvm.lifetime.start.p0(i64 8, ptr %9) #7
  call void @llvm.lifetime.start.p0(i64 4, ptr %10) #7
  store i32 0, ptr %10, align 4, !tbaa !10
  call void @llvm.lifetime.start.p0(i64 1, ptr %11) #7
  store i8 0, ptr %11, align 1, !tbaa !8
  %14 = load i8, ptr @H5S_init_g, align 1, !tbaa !8, !range !12, !noundef !13
  %15 = trunc i8 %14 to i1
  br i1 %15, label %20, label %16

16:                                               ; preds = %3
  %17 = load i8, ptr @H5_libterm_g, align 1, !tbaa !8, !range !12, !noundef !13
  %18 = trunc i8 %17 to i1
  %19 = xor i1 %18, true
  br label %20

20:                                               ; preds = %16, %3
  %21 = phi i1 [ true, %3 ], [ %19, %16 ]
  %22 = xor i1 %21, true
  %23 = xor i1 %22, true
  %24 = zext i1 %23 to i32
  %25 = sext i32 %24 to i64
  %26 = call i64 @llvm.expect.i64(i64 %25, i64 1)
  %27 = icmp ne i64 %26, 0
  br i1 %27, label %28, label %192

28:                                               ; preds = %20
  %29 = load ptr, ptr %5, align 8, !tbaa !3
  %30 = getelementptr inbounds nuw %struct.H5S_t, ptr %29, i32 0, i32 1
  %31 = getelementptr inbounds nuw %struct.H5S_select_t, ptr %30, i32 0, i32 4
  %32 = load ptr, ptr %31, align 8, !tbaa !14
  %33 = getelementptr inbounds nuw %struct.H5S_hyper_sel_t, ptr %32, i32 0, i32 0
  %34 = load i32, ptr %33, align 8, !tbaa !18
  %35 = icmp eq i32 %34, 2
  br i1 %35, label %36, label %51

36:                                               ; preds = %28
  %37 = load ptr, ptr %5, align 8, !tbaa !3
  %38 = getelementptr inbounds nuw %struct.H5S_t, ptr %37, i32 0, i32 1
  %39 = getelementptr inbounds nuw %struct.H5S_select_t, ptr %38, i32 0, i32 4
  %40 = load ptr, ptr %39, align 8, !tbaa !14
  %41 = getelementptr inbounds nuw %struct.H5S_hyper_sel_t, ptr %40, i32 0, i32 1
  %42 = getelementptr inbounds nuw %struct.H5S_hyper_diminfo_t, ptr %41, i32 0, i32 2
  %43 = getelementptr inbounds [32 x i64], ptr %42, i64 0, i64 0
  store ptr %43, ptr %8, align 8, !tbaa !33
  %44 = load ptr, ptr %5, align 8, !tbaa !3
  %45 = getelementptr inbounds nuw %struct.H5S_t, ptr %44, i32 0, i32 1
  %46 = getelementptr inbounds nuw %struct.H5S_select_t, ptr %45, i32 0, i32 4
  %47 = load ptr, ptr %46, align 8, !tbaa !14
  %48 = getelementptr inbounds nuw %struct.H5S_hyper_sel_t, ptr %47, i32 0, i32 1
  %49 = getelementptr inbounds nuw %struct.H5S_hyper_diminfo_t, ptr %48, i32 0, i32 3
  %50 = getelementptr inbounds [32 x i64], ptr %49, i64 0, i64 0
  store ptr %50, ptr %9, align 8, !tbaa !33
  br label %68

51:                                               ; preds = %28
  %52 = load ptr, ptr %5, align 8, !tbaa !3
  %53 = getelementptr inbounds nuw %struct.H5S_t, ptr %52, i32 0, i32 1
  %54 = getelementptr inbounds nuw %struct.H5S_select_t, ptr %53, i32 0, i32 4
  %55 = load ptr, ptr %54, align 8, !tbaa !14
  %56 = getelementptr inbounds nuw %struct.H5S_hyper_sel_t, ptr %55, i32 0, i32 4
  %57 = load ptr, ptr %56, align 8, !tbaa !22
  %58 = getelementptr inbounds nuw %struct.H5S_hyper_span_info_t, ptr %57, i32 0, i32 1
  %59 = load ptr, ptr %58, align 8, !tbaa !33
  store ptr %59, ptr %8, align 8, !tbaa !33
  %60 = load ptr, ptr %5, align 8, !tbaa !3
  %61 = getelementptr inbounds nuw %struct.H5S_t, ptr %60, i32 0, i32 1
  %62 = getelementptr inbounds nuw %struct.H5S_select_t, ptr %61, i32 0, i32 4
  %63 = load ptr, ptr %62, align 8, !tbaa !14
  %64 = getelementptr inbounds nuw %struct.H5S_hyper_sel_t, ptr %63, i32 0, i32 4
  %65 = load ptr, ptr %64, align 8, !tbaa !22
  %66 = getelementptr inbounds nuw %struct.H5S_hyper_span_info_t, ptr %65, i32 0, i32 2
  %67 = load ptr, ptr %66, align 8, !tbaa !33
  store ptr %67, ptr %9, align 8, !tbaa !33
  br label %68

68:                                               ; preds = %51, %36
  %69 = load ptr, ptr %5, align 8, !tbaa !3
  %70 = getelementptr inbounds nuw %struct.H5S_t, ptr %69, i32 0, i32 1
  %71 = getelementptr inbounds nuw %struct.H5S_select_t, ptr %70, i32 0, i32 1
  %72 = load i8, ptr %71, align 8, !tbaa !95, !range !12, !noundef !13
  %73 = trunc i8 %72 to i1
  br i1 %73, label %74, label %173

74:                                               ; preds = %68
  call void @llvm.lifetime.start.p0(i64 4, ptr %12) #7
  store i32 0, ptr %12, align 4, !tbaa !10
  br label %75

75:                                               ; preds = %166, %74
  %76 = load i32, ptr %12, align 4, !tbaa !10
  %77 = load ptr, ptr %5, align 8, !tbaa !3
  %78 = getelementptr inbounds nuw %struct.H5S_t, ptr %77, i32 0, i32 0
  %79 = getelementptr inbounds nuw %struct.H5S_extent_t, ptr %78, i32 0, i32 4
  %80 = load i32, ptr %79, align 8, !tbaa !23
  %81 = icmp ult i32 %76, %80
  br i1 %81, label %82, label %169

82:                                               ; preds = %75
  %83 = load ptr, ptr %8, align 8, !tbaa !33
  %84 = load i32, ptr %12, align 4, !tbaa !10
  %85 = zext i32 %84 to i64
  %86 = getelementptr inbounds nuw i64, ptr %83, i64 %85
  %87 = load i64, ptr %86, align 8, !tbaa !15
  %88 = load ptr, ptr %5, align 8, !tbaa !3
  %89 = getelementptr inbounds nuw %struct.H5S_t, ptr %88, i32 0, i32 1
  %90 = getelementptr inbounds nuw %struct.H5S_select_t, ptr %89, i32 0, i32 2
  %91 = load i32, ptr %12, align 4, !tbaa !10
  %92 = zext i32 %91 to i64
  %93 = getelementptr inbounds nuw [32 x i64], ptr %90, i64 0, i64 %92
  %94 = load i64, ptr %93, align 8, !tbaa !15
  %95 = add nsw i64 %87, %94
  %96 = icmp slt i64 %95, 0
  br i1 %96, label %97, label %116

97:                                               ; preds = %82
  br label %98

98:                                               ; preds = %97
  br label %99

99:                                               ; preds = %98
  br label %100

100:                                              ; preds = %99
  %101 = load i64, ptr @H5E_DATASPACE_g, align 8, !tbaa !15
  %102 = load i64, ptr @H5E_BADRANGE_g, align 8, !tbaa !15
  %103 = call i32 (ptr, ptr, i32, i64, i64, ptr, ...) @H5E_printf_stack(ptr noundef @.str, ptr noundef @__func__.H5S__hyper_bounds, i32 noundef 4905, i64 noundef %101, i64 noundef %102, ptr noundef @.str.86)
  br label %104

104:                                              ; preds = %100
  br label %105

105:                                              ; preds = %104
  store i8 1, ptr %11, align 1, !tbaa !8
  %106 = load i8, ptr %11, align 1, !tbaa !8, !range !12, !noundef !13
  %107 = trunc i8 %106 to i1
  %108 = zext i1 %107 to i8
  store i8 %108, ptr %11, align 1, !tbaa !8
  br label %109

109:                                              ; preds = %105
  br label %110

110:                                              ; preds = %109
  br label %111

111:                                              ; preds = %110
  store i32 -1, ptr %10, align 4, !tbaa !10
  store i32 13, ptr %13, align 4
  br label %170

112:                                              ; No predecessors!
  br label %113

113:                                              ; preds = %112
  br label %114

114:                                              ; preds = %113
  br label %115

115:                                              ; preds = %114
  br label %116

116:                                              ; preds = %115, %82
  %117 = load ptr, ptr %8, align 8, !tbaa !33
  %118 = load i32, ptr %12, align 4, !tbaa !10
  %119 = zext i32 %118 to i64
  %120 = getelementptr inbounds nuw i64, ptr %117, i64 %119
  %121 = load i64, ptr %120, align 8, !tbaa !15
  %122 = load ptr, ptr %5, align 8, !tbaa !3
  %123 = getelementptr inbounds nuw %struct.H5S_t, ptr %122, i32 0, i32 1
  %124 = getelementptr inbounds nuw %struct.H5S_select_t, ptr %123, i32 0, i32 2
  %125 = load i32, ptr %12, align 4, !tbaa !10
  %126 = zext i32 %125 to i64
  %127 = getelementptr inbounds nuw [32 x i64], ptr %124, i64 0, i64 %126
  %128 = load i64, ptr %127, align 8, !tbaa !15
  %129 = add nsw i64 %121, %128
  %130 = load ptr, ptr %6, align 8, !tbaa !33
  %131 = load i32, ptr %12, align 4, !tbaa !10
  %132 = zext i32 %131 to i64
  %133 = getelementptr inbounds nuw i64, ptr %130, i64 %132
  store i64 %129, ptr %133, align 8, !tbaa !15
  %134 = load i32, ptr %12, align 4, !tbaa !10
  %135 = load ptr, ptr %5, align 8, !tbaa !3
  %136 = getelementptr inbounds nuw %struct.H5S_t, ptr %135, i32 0, i32 1
  %137 = getelementptr inbounds nuw %struct.H5S_select_t, ptr %136, i32 0, i32 4
  %138 = load ptr, ptr %137, align 8, !tbaa !14
  %139 = getelementptr inbounds nuw %struct.H5S_hyper_sel_t, ptr %138, i32 0, i32 2
  %140 = load i32, ptr %139, align 8, !tbaa !30
  %141 = icmp eq i32 %134, %140
  br i1 %141, label %142, label %147

142:                                              ; preds = %116
  %143 = load ptr, ptr %7, align 8, !tbaa !33
  %144 = load i32, ptr %12, align 4, !tbaa !10
  %145 = zext i32 %144 to i64
  %146 = getelementptr inbounds nuw i64, ptr %143, i64 %145
  store i64 -1, ptr %146, align 8, !tbaa !15
  br label %165

147:                                              ; preds = %116
  %148 = load ptr, ptr %9, align 8, !tbaa !33
  %149 = load i32, ptr %12, align 4, !tbaa !10
  %150 = zext i32 %149 to i64
  %151 = getelementptr inbounds nuw i64, ptr %148, i64 %150
  %152 = load i64, ptr %151, align 8, !tbaa !15
  %153 = load ptr, ptr %5, align 8, !tbaa !3
  %154 = getelementptr inbounds nuw %struct.H5S_t, ptr %153, i32 0, i32 1
  %155 = getelementptr inbounds nuw %struct.H5S_select_t, ptr %154, i32 0, i32 2
  %156 = load i32, ptr %12, align 4, !tbaa !10
  %157 = zext i32 %156 to i64
  %158 = getelementptr inbounds nuw [32 x i64], ptr %155, i64 0, i64 %157
  %159 = load i64, ptr %158, align 8, !tbaa !15
  %160 = add nsw i64 %152, %159
  %161 = load ptr, ptr %7, align 8, !tbaa !33
  %162 = load i32, ptr %12, align 4, !tbaa !10
  %163 = zext i32 %162 to i64
  %164 = getelementptr inbounds nuw i64, ptr %161, i64 %163
  store i64 %160, ptr %164, align 8, !tbaa !15
  br label %165

165:                                              ; preds = %147, %142
  br label %166

166:                                              ; preds = %165
  %167 = load i32, ptr %12, align 4, !tbaa !10
  %168 = add i32 %167, 1
  store i32 %168, ptr %12, align 4, !tbaa !10
  br label %75, !llvm.loop !96

169:                                              ; preds = %75
  store i32 0, ptr %13, align 4
  br label %170

170:                                              ; preds = %111, %169
  call void @llvm.lifetime.end.p0(i64 4, ptr %12) #7
  %171 = load i32, ptr %13, align 4
  switch i32 %171, label %194 [
    i32 0, label %172
    i32 13, label %191
  ]

172:                                              ; preds = %170
  br label %190

173:                                              ; preds = %68
  %174 = load ptr, ptr %6, align 8, !tbaa !33
  %175 = load ptr, ptr %8, align 8, !tbaa !33
  %176 = load ptr, ptr %5, align 8, !tbaa !3
  %177 = getelementptr inbounds nuw %struct.H5S_t, ptr %176, i32 0, i32 0
  %178 = getelementptr inbounds nuw %struct.H5S_extent_t, ptr %177, i32 0, i32 4
  %179 = load i32, ptr %178, align 8, !tbaa !23
  %180 = zext i32 %179 to i64
  %181 = mul i64 8, %180
  call void @llvm.memcpy.p0.p0.i64(ptr align 8 %174, ptr align 8 %175, i64 %181, i1 false)
  %182 = load ptr, ptr %7, align 8, !tbaa !33
  %183 = load ptr, ptr %9, align 8, !tbaa !33
  %184 = load ptr, ptr %5, align 8, !tbaa !3
  %185 = getelementptr inbounds nuw %struct.H5S_t, ptr %184, i32 0, i32 0
  %186 = getelementptr inbounds nuw %struct.H5S_extent_t, ptr %185, i32 0, i32 4
  %187 = load i32, ptr %186, align 8, !tbaa !23
  %188 = zext i32 %187 to i64
  %189 = mul i64 8, %188
  call void @llvm.memcpy.p0.p0.i64(ptr align 8 %182, ptr align 8 %183, i64 %189, i1 false)
  br label %190

190:                                              ; preds = %173, %172
  br label %191

191:                                              ; preds = %190, %170
  br label %192

192:                                              ; preds = %191, %20
  %193 = load i32, ptr %10, align 4, !tbaa !10
  store i32 %193, ptr %4, align 4
  store i32 1, ptr %13, align 4
  br label %194

194:                                              ; preds = %192, %170
  call void @llvm.lifetime.end.p0(i64 1, ptr %11) #7
  call void @llvm.lifetime.end.p0(i64 4, ptr %10) #7
  call void @llvm.lifetime.end.p0(i64 8, ptr %9) #7
  call void @llvm.lifetime.end.p0(i64 8, ptr %8) #7
  %195 = load i32, ptr %4, align 4
  ret i32 %195
}