; Function Attrs: nounwind uwtable
define internal range(i32 -1, 1) i32 @H5S__hyper_bounds(ptr noundef readonly captures(none) %0, ptr noundef writeonly captures(none) %1, ptr noundef writeonly captures(none) %2) #0 {
  %4 = load i8, ptr @H5S_init_g, align 1, !tbaa !3, !range !7, !noundef !8
  %5 = trunc nuw i8 %4 to i1
  %6 = load i8, ptr @H5_libterm_g, align 1, !range !7
  %7 = trunc nuw i8 %6 to i1
  %8 = xor i1 %7, true
  %9 = select i1 %5, i1 true, i1 %8
  br i1 %9, label %10, label %.loopexit, !prof !9

10:                                               ; preds = %3
  %11 = getelementptr inbounds nuw i8, ptr %0, i64 360
  %12 = load ptr, ptr %11, align 8, !tbaa !10
  %13 = load i32, ptr %12, align 8, !tbaa !13
  %14 = icmp eq i32 %13, 2
  br i1 %14, label %15, label %18

15:                                               ; preds = %10
  %16 = getelementptr inbounds nuw i8, ptr %12, i64 2056
  %17 = getelementptr inbounds nuw i8, ptr %12, i64 2312
  br label %25

18:                                               ; preds = %10
  %19 = getelementptr inbounds nuw i8, ptr %12, i64 2584
  %20 = load ptr, ptr %19, align 8, !tbaa !19
  %21 = getelementptr inbounds nuw i8, ptr %20, i64 8
  %22 = load ptr, ptr %21, align 8, !tbaa !31
  %23 = getelementptr inbounds nuw i8, ptr %20, i64 16
  %24 = load ptr, ptr %23, align 8, !tbaa !31
  br label %25

25:                                               ; preds = %18, %15
  %.041 = phi ptr [ %16, %15 ], [ %22, %18 ]
  %.040 = phi ptr [ %17, %15 ], [ %24, %18 ]
  %26 = getelementptr inbounds nuw i8, ptr %0, i64 88
  %27 = load i8, ptr %26, align 8, !tbaa !84, !range !7, !noundef !8
  %28 = trunc nuw i8 %27 to i1
  %29 = getelementptr inbounds nuw i8, ptr %0, i64 56
  %30 = load i32, ptr %29, align 8, !tbaa !21
  br i1 %28, label %.preheader, label %57

.preheader:                                       ; preds = %25
  %.not = icmp eq i32 %30, 0
  br i1 %.not, label %.loopexit, label %.lr.ph

.lr.ph:                                           ; preds = %.preheader
  %31 = getelementptr inbounds nuw i8, ptr %0, i64 96
  %wide.trip.count = zext i32 %30 to i64
  br label %32

32:                                               ; preds = %.lr.ph, %55
  %indvars.iv = phi i64 [ 0, %.lr.ph ], [ %indvars.iv.next, %55 ]
  %33 = getelementptr inbounds nuw i64, ptr %.041, i64 %indvars.iv
  %34 = load i64, ptr %33, align 8, !tbaa !11
  %35 = getelementptr inbounds nuw [32 x i64], ptr %31, i64 0, i64 %indvars.iv
  %36 = load i64, ptr %35, align 8, !tbaa !11
  %37 = add nsw i64 %36, %34
  %38 = icmp slt i64 %37, 0
  br i1 %38, label %39, label %43

39:                                               ; preds = %32
  %40 = load i64, ptr @H5E_DATASPACE_g, align 8, !tbaa !11
  %41 = load i64, ptr @H5E_BADRANGE_g, align 8, !tbaa !11
  %42 = tail call i32 (ptr, ptr, i32, i64, i64, ptr, ...) @H5E_printf_stack(ptr noundef nonnull @.str, ptr noundef nonnull @__func__.H5S__hyper_bounds, i32 noundef 4905, i64 noundef %40, i64 noundef %41, ptr noundef nonnull @.str.86) #14
  br label %.loopexit

43:                                               ; preds = %32
  %44 = getelementptr inbounds nuw i64, ptr %1, i64 %indvars.iv
  store i64 %37, ptr %44, align 8, !tbaa !11
  %45 = load ptr, ptr %11, align 8, !tbaa !10
  %46 = getelementptr inbounds nuw i8, ptr %45, i64 2568
  %47 = load i32, ptr %46, align 8, !tbaa !28
  %48 = zext i32 %47 to i64
  %49 = icmp eq i64 %indvars.iv, %48
  br i1 %49, label %55, label %50

50:                                               ; preds = %43
  %51 = getelementptr inbounds nuw i64, ptr %.040, i64 %indvars.iv
  %52 = load i64, ptr %51, align 8, !tbaa !11
  %53 = load i64, ptr %35, align 8, !tbaa !11
  %54 = add nsw i64 %53, %52
  br label %55

55:                                               ; preds = %43, %50
  %.sink = phi i64 [ %54, %50 ], [ -1, %43 ]
  %56 = getelementptr inbounds nuw i64, ptr %2, i64 %indvars.iv
  store i64 %.sink, ptr %56, align 8, !tbaa !11
  %indvars.iv.next = add nuw nsw i64 %indvars.iv, 1
  %exitcond.not = icmp eq i64 %indvars.iv.next, %wide.trip.count
  br i1 %exitcond.not, label %.loopexit, label %32, !llvm.loop !85

57:                                               ; preds = %25
  %58 = zext i32 %30 to i64
  %59 = shl nuw nsw i64 %58, 3
  tail call void @llvm.memcpy.p0.p0.i64(ptr align 8 %1, ptr align 8 %.041, i64 %59, i1 false)
  %60 = load i32, ptr %29, align 8, !tbaa !21
  %61 = zext i32 %60 to i64
  %62 = shl nuw nsw i64 %61, 3
  tail call void @llvm.memcpy.p0.p0.i64(ptr align 8 %2, ptr align 8 %.040, i64 %62, i1 false)
  br label %.loopexit

.loopexit:                                        ; preds = %55, %.preheader, %39, %3, %57
  %.042 = phi i32 [ 0, %57 ], [ 0, %3 ], [ -1, %39 ], [ 0, %.preheader ], [ 0, %55 ]
  ret i32 %.042
}